target datalayout = "e-m:e-p270:32:32-p271:32:32-p272:64:64-i64:64-i128:128-f80:128-n8:16:32:64-S128"
target triple = "x86_64-pc-linux-gnu"

%struct.expert_field = type { i32, i32 }

@ei_gsm_a_dtap_extraneous_data = internal global %struct.expert_field zeroinitializer, align 4
@hf_gsm_a_dtap_rpdu = internal global i32 0, align 4
@rp_handle = internal global ptr null, align 8
@.str.940 = private unnamed_addr constant [21 x i8] c"RPDU (not displayed)\00", align 1
@g_tree = internal global ptr null, align 8

; Function Attrs: null_pointer_is_valid sspstrong uwtable
define internal zeroext i16 @de_cp_user_data(ptr noundef %0, ptr noundef %1, ptr noundef %2, i32 noundef %3, i32 noundef %4, ptr noundef %5, i32 noundef %6) #1 {
  %8 = alloca ptr, align 8
  %9 = alloca ptr, align 8
  %10 = alloca ptr, align 8
  %11 = alloca i32, align 4
  %12 = alloca i32, align 4
  %13 = alloca ptr, align 8
  %14 = alloca i32, align 4
  %15 = alloca i32, align 4
  %16 = alloca ptr, align 8
  store ptr %0, ptr %8, align 8
  store ptr %1, ptr %9, align 8
  store ptr %2, ptr %10, align 8
  store i32 %3, ptr %11, align 4
  store i32 %4, ptr %12, align 4
  store ptr %5, ptr %13, align 8
  store i32 %6, ptr %14, align 4
  call void @llvm.lifetime.start.p0(i64 4, ptr %15) #7
  call void @llvm.lifetime.start.p0(i64 8, ptr %16) #7
  %17 = load i32, ptr %11, align 4
  store i32 %17, ptr %15, align 4
  %18 = load ptr, ptr %9, align 8
  %19 = load i32, ptr @hf_gsm_a_dtap_rpdu, align 4
  %20 = load ptr, ptr %8, align 8
  %21 = load i32, ptr %15, align 4
  %22 = load i32, ptr %12, align 4
  %23 = call ptr (ptr, i32, ptr, i32, i32, ptr, ptr, ...) @proto_tree_add_bytes_format(ptr noundef %18, i32 noundef %19, ptr noundef %20, i32 noundef %21, i32 noundef %22, ptr noundef null, ptr noundef @.str.940)
  %24 = load ptr, ptr %8, align 8
  %25 = load i32, ptr %15, align 4
  %26 = load i32, ptr %12, align 4
  %27 = call ptr @tvb_new_subset_length(ptr noundef %24, i32 noundef %25, i32 noundef %26)
  store ptr %27, ptr %16, align 8
  %28 = load ptr, ptr @rp_handle, align 8
  %29 = load ptr, ptr %16, align 8
  %30 = load ptr, ptr %10, align 8
  %31 = load ptr, ptr @g_tree, align 8
  %32 = call i32 @call_dissector(ptr noundef %28, ptr noundef %29, ptr noundef %30, ptr noundef %31)
  %33 = load i32, ptr %12, align 4
  %34 = load i32, ptr %15, align 4
  %35 = add i32 %34, %33
  store i32 %35, ptr %15, align 4
  %36 = load i32, ptr %12, align 4
  %37 = load i32, ptr %15, align 4
  %38 = load i32, ptr %11, align 4
  %39 = sub i32 %37, %38
  %40 = icmp ugt i32 %36, %39
  br i1 %40, label %41, label %59

41:                                               ; preds = %7
  %42 = load ptr, ptr %9, align 8
  %43 = load ptr, ptr %10, align 8
  %44 = load ptr, ptr %8, align 8
  %45 = load i32, ptr %15, align 4
  %46 = load i32, ptr %12, align 4
  %47 = load i32, ptr %15, align 4
  %48 = load i32, ptr %11, align 4
  %49 = sub i32 %47, %48
  %50 = sub i32 %46, %49
  %51 = call ptr @proto_tree_add_expert(ptr noundef %42, ptr noundef %43, ptr noundef @ei_gsm_a_dtap_extraneous_data, ptr noundef %44, i32 noundef %45, i32 noundef %50)
  %52 = load i32, ptr %12, align 4
  %53 = load i32, ptr %15, align 4
  %54 = load i32, ptr %11, align 4
  %55 = sub i32 %53, %54
  %56 = sub i32 %52, %55
  %57 = load i32, ptr %15, align 4
  %58 = add i32 %57, %56
  store i32 %58, ptr %15, align 4
  br label %59

59:                                               ; preds = %41, %7
  %60 = load i32, ptr %15, align 4
  %61 = load i32, ptr %11, align 4
  %62 = sub i32 %60, %61
  %63 = trunc i32 %62 to i16
  call void @llvm.lifetime.end.p0(i64 8, ptr %16) #7
  call void @llvm.lifetime.end.p0(i64 4, ptr %15) #7
  ret i16 %63
}