; Function Attrs: null_pointer_is_valid sspstrong uwtable
define internal noundef zeroext i16 @de_cp_user_data(ptr noundef %0, ptr noundef %1, ptr noundef %2, i32 noundef %3, i32 noundef %4, ptr readnone captures(none) %5, i32 %6) #1 {
  %8 = load i32, ptr @hf_gsm_a_dtap_rpdu, align 4
  %9 = tail call ptr (ptr, i32, ptr, i32, i32, ptr, ptr, ...) @proto_tree_add_bytes_format(ptr noundef %1, i32 noundef %8, ptr noundef %0, i32 noundef %3, i32 noundef %4, ptr noundef null, ptr noundef nonnull @.str.940)
  %10 = tail call ptr @tvb_new_subset_length(ptr noundef %0, i32 noundef %3, i32 noundef %4)
  %11 = load ptr, ptr @rp_handle, align 8
  %12 = load ptr, ptr @g_tree, align 8
  %13 = tail call i32 @call_dissector(ptr noundef %11, ptr noundef %10, ptr noundef %2, ptr noundef %12)
  %14 = trunc i32 %4 to i16
  ret i16 %14
}